; Function Attrs: nounwind uwtable
define dso_local i64 @to_regrole(ptr noundef captures(none) %0) local_unnamed_addr #0 {
  %2 = alloca i64, align 8
  %3 = alloca %struct.ErrorSaveContext, align 8
  %4 = getelementptr inbounds nuw i8, ptr %0, i64 32
  %5 = load i64, ptr %4, align 8
  %6 = inttoptr i64 %5 to ptr
  %7 = tail call ptr @pg_detoast_datum_packed(ptr noundef %6) #9
  %8 = tail call ptr @text_to_cstring(ptr noundef %7) #9
  call void @llvm.lifetime.start.p0(i64 8, ptr nonnull %2) #9
  call void @llvm.lifetime.start.p0(i64 16, ptr nonnull %3) #9
  call void @llvm.memcpy.p0.p0.i64(ptr noundef nonnull align 8 dereferenceable(16) %3, ptr noundef nonnull align 8 dereferenceable(16) @__const.to_regnamespace.escontext, i64 16, i1 false)
  %9 = call zeroext i1 @DirectInputFunctionCallSafe(ptr noundef nonnull @regrolein, ptr noundef %8, i32 noundef 0, i32 noundef -1, ptr noundef nonnull %3, ptr noundef nonnull %2) #9
  br i1 %9, label %12, label %10

10:                                               ; preds = %1
  %11 = getelementptr inbounds nuw i8, ptr %0, i64 28
  store i8 1, ptr %11, align 4
  br label %14

12:                                               ; preds = %1
  %13 = load i64, ptr %2, align 8
  br label %14

14:                                               ; preds = %12, %10
  %.0 = phi i64 [ %13, %12 ], [ 0, %10 ]
  call void @llvm.lifetime.end.p0(i64 16, ptr nonnull %3) #9
  call void @llvm.lifetime.end.p0(i64 8, ptr nonnull %2) #9
  ret i64 %.0
}